target datalayout = "e-m:e-p270:32:32-p271:32:32-p272:64:64-i64:64-i128:128-f80:128-n8:16:32:64-S128"
target triple = "x86_64-pc-linux-gnu"

%"struct.std::_Rb_tree_header" = type { %"struct.std::_Rb_tree_node_base", i64 }
%"struct.std::_Rb_tree_node_base" = type { i32, ptr, ptr, ptr }
%class.QFlags = type { i32 }
%"class.vcg::Point2" = type { [2 x i32] }
%class.AlignPairWidget = type <{ %class.QGLWidget, ptr, ptr, %"class.vcg::Trackball", %"class.vcg::Trackball", [2 x ptr], ptr, ptr, ptr, %"class.std::vector.25", %"class.std::vector.25", i8, i8, [2 x i8], %"class.vcg::Point2", i8, i8, i8, i8 }>
%class.QGLWidget = type { %class.QWidget }
%class.QWidget = type { %class.QObject, %class.QPaintDevice, ptr }
%class.QObject = type { ptr, %class.QScopedPointer }
%class.QScopedPointer = type { ptr }
%class.QPaintDevice = type { ptr, i16, ptr }
%"class.vcg::Trackball" = type <{ %"class.vcg::Transform", %"class.vcg::View", i32, ptr, ptr, ptr, %"class.std::map.17", %"class.vcg::Similarityf", %"class.vcg::Similarityf", %"class.vcg::Similarityf", %"class.vcg::Point3", [4 x i8], %"class.std::vector.25", i8, [3 x i8], i32, i32, %"class.vcg::Quaternion", i8, i8, [2 x i8], %"class.std::__cxx11::list", i32, i8, [3 x i8] }>
%"class.vcg::Transform" = type { %"class.vcg::Similarityf", %"class.vcg::Point3", float }
%"class.vcg::View" = type <{ %"class.vcg::Matrix44", %"class.vcg::Matrix44", %"class.vcg::Matrix44", %"class.vcg::Matrix44", [4 x i32], i8, [3 x i8] }>
%"class.vcg::Matrix44" = type { %"struct.std::array" }
%"struct.std::array" = type { [16 x float] }
%"class.std::map.17" = type { %"class.std::_Rb_tree.18" }
%"class.std::_Rb_tree.18" = type { %"struct.std::_Rb_tree<int, std::pair<const int, vcg::TrackMode *>, std::_Select1st<std::pair<const int, vcg::TrackMode *>>, std::less<int>>::_Rb_tree_impl" }
%"struct.std::_Rb_tree<int, std::pair<const int, vcg::TrackMode *>, std::_Select1st<std::pair<const int, vcg::TrackMode *>>, std::less<int>>::_Rb_tree_impl" = type { %"struct.std::_Rb_tree_key_compare.22", %"struct.std::_Rb_tree_header" }
%"struct.std::_Rb_tree_key_compare.22" = type { %"struct.std::less.23" }
%"struct.std::less.23" = type { i8 }
%"class.vcg::Similarityf" = type { %"class.vcg::Similarity" }
%"class.vcg::Similarity" = type { %"class.vcg::Quaternion", %"class.vcg::Point3", float }
%"class.vcg::Point3" = type { [3 x float] }
%"class.vcg::Quaternion" = type { %"class.vcg::Point4.16" }
%"class.vcg::Point4.16" = type { [4 x float] }
%"class.std::__cxx11::list" = type { %"class.std::__cxx11::_List_base" }
%"class.std::__cxx11::_List_base" = type { %"struct.std::__cxx11::_List_base<vcg::Transform, std::allocator<vcg::Transform>>::_List_impl" }
%"struct.std::__cxx11::_List_base<vcg::Transform, std::allocator<vcg::Transform>>::_List_impl" = type { %"struct.std::__detail::_List_node_header" }
%"struct.std::__detail::_List_node_header" = type { %"struct.std::__detail::_List_node_base", i64 }
%"struct.std::__detail::_List_node_base" = type { ptr, ptr }
%"class.std::vector.25" = type { %"struct.std::_Vector_base.26" }
%"struct.std::_Vector_base.26" = type { %"struct.std::_Vector_base<vcg::Point3<float>, std::allocator<vcg::Point3<float>>>::_Vector_impl" }
%"struct.std::_Vector_base<vcg::Point3<float>, std::allocator<vcg::Point3<float>>>::_Vector_impl" = type { %"struct.std::_Vector_base<vcg::Point3<float>, std::allocator<vcg::Point3<float>>>::_Vector_impl_data" }
%"struct.std::_Vector_base<vcg::Point3<float>, std::allocator<vcg::Point3<float>>>::_Vector_impl_data" = type { ptr, ptr, ptr }
%class.QFont = type <{ %class.QExplicitlySharedDataPointer, i32, [4 x i8] }>
%class.QExplicitlySharedDataPointer = type { ptr }
%class.QWidgetData = type { i64, i32, %class.QFlags, i32, %class.QRect, [4 x i8], %class.QPalette, %class.QFont, %class.QRect }
%class.QPalette = type <{ ptr, %union.anon.204, [4 x i8] }>
%union.anon.204 = type { %"struct.QPalette::Data" }
%"struct.QPalette::Data" = type { i32 }
%class.QRect = type { i32, i32, i32, i32 }
%class.QPointF = type { double, double }
%class.QPoint = type { i32, i32 }
%class.QFlags.218 = type { i32 }
%class.QInputEvent = type { %class.QEvent.base, %class.QFlags.218, i64 }
%class.QEvent.base = type <{ ptr, ptr, i16, i16 }>
%class.QFlag = type { i32 }
%class.QFlags.219 = type { i32 }
%class.QWheelEvent = type { %class.QInputEvent, %class.QPointF, %class.QPointF, %class.QPoint, %class.QPoint, i32, i32, %class.QFlags.219, i32 }

; Function Attrs: mustprogress nounwind uwtable
define linkonce_odr noundef i32 @_ZNK5QFlagcvjEv(ptr noundef nonnull align 4 dereferenceable(4) %0) #4 comdat align 2 {
  %2 = alloca ptr, align 8
  store ptr %0, ptr %2, align 8
  %3 = load ptr, ptr %2, align 8
  %4 = getelementptr inbounds %class.QFlag, ptr %3, i32 0, i32 0
  %5 = load i32, ptr %4, align 4
  ret i32 %5
}

; Function Attrs: mustprogress nounwind uwtable
define linkonce_odr void @_ZN6QFlagsIN2Qt16KeyboardModifierEEC2E5QFlag(ptr noundef nonnull align 4 dereferenceable(4) %0, i32 %1) unnamed_addr #4 comdat align 2 {
  %3 = alloca %class.QFlag, align 4
  %4 = alloca ptr, align 8
  %5 = getelementptr inbounds %class.QFlag, ptr %3, i32 0, i32 0
  store i32 %1, ptr %5, align 4
  store ptr %0, ptr %4, align 8
  %6 = load ptr, ptr %4, align 8
  %7 = getelementptr inbounds %class.QFlags.218, ptr %6, i32 0, i32 0
  %8 = call noundef i32 @_ZNK5QFlagcvjEv(ptr noundef nonnull align 4 dereferenceable(4) %3) #3
  store i32 %8, ptr %7, align 4
  ret void
}

; Function Attrs: mustprogress nounwind uwtable
define linkonce_odr void @_ZN5QFlagC2Ej(ptr noundef nonnull align 4 dereferenceable(4) %0, i32 noundef %1) unnamed_addr #4 comdat align 2 {
  %3 = alloca ptr, align 8
  %4 = alloca i32, align 4
  store ptr %0, ptr %3, align 8
  store i32 %1, ptr %4, align 4
  %5 = load ptr, ptr %3, align 8
  %6 = getelementptr inbounds %class.QFlag, ptr %5, i32 0, i32 0
  %7 = load i32, ptr %4, align 4
  store i32 %7, ptr %6, align 4
  ret void
}

; Function Attrs: mustprogress nounwind uwtable
define linkonce_odr noundef i32 @_ZNK6QFlagsIN2Qt16KeyboardModifierEEcvjEv(ptr noundef nonnull align 4 dereferenceable(4) %0) #4 comdat align 2 {
  %2 = alloca ptr, align 8
  store ptr %0, ptr %2, align 8
  %3 = load ptr, ptr %2, align 8
  %4 = getelementptr inbounds %class.QFlags.218, ptr %3, i32 0, i32 0
  %5 = load i32, ptr %4, align 4
  ret i32 %5
}

; Function Attrs: mustprogress nounwind uwtable
define linkonce_odr i32 @_ZNK6QFlagsIN2Qt16KeyboardModifierEEanES1_(ptr noundef nonnull align 4 dereferenceable(4) %0, i32 noundef %1) #4 comdat align 2 {
  %3 = alloca %class.QFlags.218, align 4
  %4 = alloca ptr, align 8
  %5 = alloca i32, align 4
  %6 = alloca %class.QFlag, align 4
  store ptr %0, ptr %4, align 8
  store i32 %1, ptr %5, align 4
  %7 = load ptr, ptr %4, align 8
  %8 = getelementptr inbounds %class.QFlags.218, ptr %7, i32 0, i32 0
  %9 = load i32, ptr %8, align 4
  %10 = load i32, ptr %5, align 4
  %11 = and i32 %9, %10
  call void @_ZN5QFlagC2Ej(ptr noundef nonnull align 4 dereferenceable(4) %6, i32 noundef %11) #3
  %12 = getelementptr inbounds %class.QFlag, ptr %6, i32 0, i32 0
  %13 = load i32, ptr %12, align 4
  call void @_ZN6QFlagsIN2Qt16KeyboardModifierEEC2E5QFlag(ptr noundef nonnull align 4 dereferenceable(4) %3, i32 %13) #3
  %14 = getelementptr inbounds %class.QFlags.218, ptr %3, i32 0, i32 0
  %15 = load i32, ptr %14, align 4
  ret i32 %15
}

; Function Attrs: mustprogress nounwind uwtable
define linkonce_odr noundef i32 @_ZNK5QRect5widthEv(ptr noundef nonnull align 4 dereferenceable(16) %0) #4 comdat align 2 {
  %2 = alloca ptr, align 8
  store ptr %0, ptr %2, align 8
  %3 = load ptr, ptr %2, align 8
  %4 = getelementptr inbounds %class.QRect, ptr %3, i32 0, i32 2
  %5 = load i32, ptr %4, align 4
  %6 = getelementptr inbounds %class.QRect, ptr %3, i32 0, i32 0
  %7 = load i32, ptr %6, align 4
  %8 = sub nsw i32 %5, %7
  %9 = add nsw i32 %8, 1
  ret i32 %9
}

; Function Attrs: mustprogress nounwind uwtable
define linkonce_odr noundef double @_ZNK7QPointF1xEv(ptr noundef nonnull align 8 dereferenceable(16) %0) #4 comdat align 2 {
  %2 = alloca ptr, align 8
  store ptr %0, ptr %2, align 8
  %3 = load ptr, ptr %2, align 8
  %4 = getelementptr inbounds %class.QPointF, ptr %3, i32 0, i32 0
  %5 = load double, ptr %4, align 8
  ret double %5
}

; Function Attrs: mustprogress nounwind uwtable
define linkonce_odr noundef i32 @_Z11QTWheel2VCG6QFlagsIN2Qt16KeyboardModifierEE(i32 %0) #4 comdat {
  %2 = alloca %class.QFlags.218, align 4
  %3 = alloca i32, align 4
  %4 = alloca %class.QFlags.218, align 4
  %5 = alloca %class.QFlags.218, align 4
  %6 = alloca %class.QFlags.218, align 4
  %7 = getelementptr inbounds %class.QFlags.218, ptr %2, i32 0, i32 0
  store i32 %0, ptr %7, align 4
  store i32 8, ptr %3, align 4
  %8 = call i32 @_ZNK6QFlagsIN2Qt16KeyboardModifierEEanES1_(ptr noundef nonnull align 4 dereferenceable(4) %2, i32 noundef 33554432) #3
  %9 = getelementptr inbounds %class.QFlags.218, ptr %4, i32 0, i32 0
  store i32 %8, ptr %9, align 4
  %10 = call noundef i32 @_ZNK6QFlagsIN2Qt16KeyboardModifierEEcvjEv(ptr noundef nonnull align 4 dereferenceable(4) %4) #3
  %11 = icmp ne i32 %10, 0
  br i1 %11, label %12, label %15

12:                                               ; preds = %1
  %13 = load i32, ptr %3, align 4
  %14 = or i32 %13, 16
  store i32 %14, ptr %3, align 4
  br label %15

15:                                               ; preds = %12, %1
  %16 = call i32 @_ZNK6QFlagsIN2Qt16KeyboardModifierEEanES1_(ptr noundef nonnull align 4 dereferenceable(4) %2, i32 noundef 67108864) #3
  %17 = getelementptr inbounds %class.QFlags.218, ptr %5, i32 0, i32 0
  store i32 %16, ptr %17, align 4
  %18 = call noundef i32 @_ZNK6QFlagsIN2Qt16KeyboardModifierEEcvjEv(ptr noundef nonnull align 4 dereferenceable(4) %5) #3
  %19 = icmp ne i32 %18, 0
  br i1 %19, label %20, label %23

20:                                               ; preds = %15
  %21 = load i32, ptr %3, align 4
  %22 = or i32 %21, 32
  store i32 %22, ptr %3, align 4
  br label %23

23:                                               ; preds = %20, %15
  %24 = call i32 @_ZNK6QFlagsIN2Qt16KeyboardModifierEEanES1_(ptr noundef nonnull align 4 dereferenceable(4) %2, i32 noundef 134217728) #3
  %25 = getelementptr inbounds %class.QFlags.218, ptr %6, i32 0, i32 0
  store i32 %24, ptr %25, align 4
  %26 = call noundef i32 @_ZNK6QFlagsIN2Qt16KeyboardModifierEEcvjEv(ptr noundef nonnull align 4 dereferenceable(4) %6) #3
  %27 = icmp ne i32 %26, 0
  br i1 %27, label %28, label %31

28:                                               ; preds = %23
  %29 = load i32, ptr %3, align 4
  %30 = or i32 %29, 64
  store i32 %30, ptr %3, align 4
  br label %31

31:                                               ; preds = %28, %23
  %32 = load i32, ptr %3, align 4
  ret i32 %32
}

; Function Attrs: mustprogress nounwind uwtable
define linkonce_odr i32 @_ZNK11QInputEvent9modifiersEv(ptr noundef nonnull align 8 dereferenceable(32) %0) #4 comdat align 2 {
  %2 = alloca %class.QFlags.218, align 4
  %3 = alloca ptr, align 8
  store ptr %0, ptr %3, align 8
  %4 = load ptr, ptr %3, align 8
  %5 = getelementptr inbounds %class.QInputEvent, ptr %4, i32 0, i32 1
  call void @llvm.memcpy.p0.p0.i64(ptr align 4 %2, ptr align 4 %5, i64 4, i1 false)
  %6 = getelementptr inbounds %class.QFlags.218, ptr %2, i32 0, i32 0
  %7 = load i32, ptr %6, align 4
  ret i32 %7
}

; Function Attrs: mustprogress nounwind uwtable
define linkonce_odr noundef i32 @_ZNK11QWheelEvent5deltaEv(ptr noundef nonnull align 8 dereferenceable(96) %0) #4 comdat align 2 {
  %2 = alloca ptr, align 8
  store ptr %0, ptr %2, align 8
  %3 = load ptr, ptr %2, align 8
  %4 = getelementptr inbounds %class.QWheelEvent, ptr %3, i32 0, i32 5
  %5 = load i32, ptr %4, align 8
  ret i32 %5
}

; Function Attrs: mustprogress nounwind uwtable
define linkonce_odr noundef i32 @_ZNK7QWidget5widthEv(ptr noundef nonnull align 8 dereferenceable(48) %0) #4 comdat align 2 {
  %2 = alloca ptr, align 8
  store ptr %0, ptr %2, align 8
  %3 = load ptr, ptr %2, align 8
  %4 = getelementptr inbounds %class.QWidget, ptr %3, i32 0, i32 2
  %5 = load ptr, ptr %4, align 8
  %6 = getelementptr inbounds %class.QWidgetData, ptr %5, i32 0, i32 4
  %7 = call noundef i32 @_ZNK5QRect5widthEv(ptr noundef nonnull align 4 dereferenceable(16) %6) #3
  ret i32 %7
}

; Function Attrs: mustprogress nounwind uwtable
define linkonce_odr noundef i32 @_ZNK11QWheelEvent1xEv(ptr noundef nonnull align 8 dereferenceable(96) %0) #4 comdat align 2 {
  %2 = alloca ptr, align 8
  store ptr %0, ptr %2, align 8
  %3 = load ptr, ptr %2, align 8
  %4 = getelementptr inbounds %class.QWheelEvent, ptr %3, i32 0, i32 1
  %5 = call noundef double @_ZNK7QPointF1xEv(ptr noundef nonnull align 8 dereferenceable(16) %4)
  %6 = fptosi double %5 to i32
  ret i32 %6
}

; Function Attrs: mustprogress uwtable
define void @_ZN15AlignPairWidget10wheelEventEP11QWheelEvent(ptr noundef nonnull align 8 dereferenceable(1367) %0, ptr noundef %1) unnamed_addr #5 align 2 {
  %3 = alloca ptr, align 8
  %4 = alloca ptr, align 8
  %5 = alloca i32, align 4
  %6 = alloca i32, align 4
  %7 = alloca %class.QFlags.218, align 4
  %8 = alloca %class.QFlags.218, align 4
  %9 = alloca %class.QFlags.218, align 4
  store ptr %0, ptr %3, align 8
  store ptr %1, ptr %4, align 8
  %10 = load ptr, ptr %3, align 8
  store i32 120, ptr %5, align 4
  %11 = getelementptr inbounds %class.AlignPairWidget, ptr %10, i32 0, i32 16
  %12 = load i8, ptr %11, align 1
  %13 = trunc i8 %12 to i1
  br i1 %13, label %14, label %36

14:                                               ; preds = %2
  %15 = load ptr, ptr %4, align 8
  %16 = call noundef i32 @_ZNK11QWheelEvent1xEv(ptr noundef nonnull align 8 dereferenceable(96) %15)
  %17 = call noundef i32 @_ZNK7QWidget5widthEv(ptr noundef nonnull align 8 dereferenceable(48) %10)
  %18 = sdiv i32 %17, 2
  %19 = icmp slt i32 %16, %18
  %20 = select i1 %19, i32 0, i32 1
  store i32 %20, ptr %6, align 4
  %21 = getelementptr inbounds %class.AlignPairWidget, ptr %10, i32 0, i32 5
  %22 = load i32, ptr %6, align 4
  %23 = sext i32 %22 to i64
  %24 = getelementptr inbounds [2 x ptr], ptr %21, i64 0, i64 %23
  %25 = load ptr, ptr %24, align 8
  %26 = load ptr, ptr %4, align 8
  %27 = call noundef i32 @_ZNK11QWheelEvent5deltaEv(ptr noundef nonnull align 8 dereferenceable(96) %26)
  %28 = sitofp i32 %27 to float
  %29 = fdiv float %28, 1.200000e+02
  %30 = load ptr, ptr %4, align 8
  %31 = call i32 @_ZNK11QInputEvent9modifiersEv(ptr noundef nonnull align 8 dereferenceable(32) %30)
  %32 = getelementptr inbounds %class.QFlags.218, ptr %7, i32 0, i32 0
  store i32 %31, ptr %32, align 4
  %33 = getelementptr inbounds %class.QFlags.218, ptr %7, i32 0, i32 0
  %34 = load i32, ptr %33, align 4
  %35 = call noundef i32 @_Z11QTWheel2VCG6QFlagsIN2Qt16KeyboardModifierEE(i32 %34)
  call void @_ZN3vcg9Trackball10MouseWheelEfi(ptr noundef nonnull align 8 dereferenceable(597) %25, float noundef %29, i32 noundef %35)
  br label %63

36:                                               ; preds = %2
  %37 = getelementptr inbounds %class.AlignPairWidget, ptr %10, i32 0, i32 5
  %38 = getelementptr inbounds [2 x ptr], ptr %37, i64 0, i64 0
  %39 = load ptr, ptr %38, align 8
  %40 = load ptr, ptr %4, align 8
  %41 = call noundef i32 @_ZNK11QWheelEvent5deltaEv(ptr noundef nonnull align 8 dereferenceable(96) %40)
  %42 = sitofp i32 %41 to float
  %43 = fdiv float %42, 1.200000e+02
  %44 = load ptr, ptr %4, align 8
  %45 = call i32 @_ZNK11QInputEvent9modifiersEv(ptr noundef nonnull align 8 dereferenceable(32) %44)
  %46 = getelementptr inbounds %class.QFlags.218, ptr %8, i32 0, i32 0
  store i32 %45, ptr %46, align 4
  %47 = getelementptr inbounds %class.QFlags.218, ptr %8, i32 0, i32 0
  %48 = load i32, ptr %47, align 4
  %49 = call noundef i32 @_Z11QTWheel2VCG6QFlagsIN2Qt16KeyboardModifierEE(i32 %48)
  call void @_ZN3vcg9Trackball10MouseWheelEfi(ptr noundef nonnull align 8 dereferenceable(597) %39, float noundef %43, i32 noundef %49)
  %50 = getelementptr inbounds %class.AlignPairWidget, ptr %10, i32 0, i32 5
  %51 = getelementptr inbounds [2 x ptr], ptr %50, i64 0, i64 1
  %52 = load ptr, ptr %51, align 8
  %53 = load ptr, ptr %4, align 8
  %54 = call noundef i32 @_ZNK11QWheelEvent5deltaEv(ptr noundef nonnull align 8 dereferenceable(96) %53)
  %55 = sitofp i32 %54 to float
  %56 = fdiv float %55, 1.200000e+02
  %57 = load ptr, ptr %4, align 8
  %58 = call i32 @_ZNK11QInputEvent9modifiersEv(ptr noundef nonnull align 8 dereferenceable(32) %57)
  %59 = getelementptr inbounds %class.QFlags.218, ptr %9, i32 0, i32 0
  store i32 %58, ptr %59, align 4
  %60 = getelementptr inbounds %class.QFlags.218, ptr %9, i32 0, i32 0
  %61 = load i32, ptr %60, align 4
  %62 = call noundef i32 @_Z11QTWheel2VCG6QFlagsIN2Qt16KeyboardModifierEE(i32 %61)
  call void @_ZN3vcg9Trackball10MouseWheelEfi(ptr noundef nonnull align 8 dereferenceable(597) %52, float noundef %56, i32 noundef %62)
  br label %63

63:                                               ; preds = %36, %14
  call void @_ZN7QWidget6updateEv(ptr noundef nonnull align 8 dereferenceable(48) %10)
  ret void
}