; Function Attrs: mustprogress uwtable
define void @_ZN15AlignPairWidget10wheelEventEP11QWheelEvent(ptr noundef nonnull align 8 dereferenceable(1367) %0, ptr nocapture noundef readonly %1) unnamed_addr #9 align 2 {
  %3 = getelementptr inbounds i8, ptr %0, i64 1365
  %4 = load i8, ptr %3, align 1
  %5 = and i8 %4, 1
  %.not = icmp eq i8 %5, 0
  br i1 %.not, label %31, label %6

6:                                                ; preds = %2
  %7 = getelementptr inbounds i8, ptr %1, i64 32
  %8 = load double, ptr %7, align 8
  %9 = fptosi double %8 to i32
  %10 = getelementptr inbounds i8, ptr %0, i64 40
  %11 = load ptr, ptr %10, align 8
  %12 = getelementptr inbounds i8, ptr %11, i64 20
  %13 = getelementptr inbounds i8, ptr %11, i64 28
  %14 = load i32, ptr %13, align 4
  %15 = load i32, ptr %12, align 4
  %16 = add i32 %14, 1
  %17 = sub i32 %16, %15
  %18 = sdiv i32 %17, 2
  %19 = icmp sle i32 %18, %9
  %20 = getelementptr inbounds i8, ptr %0, i64 1264
  %21 = zext i1 %19 to i64
  %22 = getelementptr inbounds [2 x ptr], ptr %20, i64 0, i64 %21
  %23 = load ptr, ptr %22, align 8
  %24 = getelementptr inbounds i8, ptr %1, i64 80
  %25 = load i32, ptr %24, align 8
  %26 = sitofp i32 %25 to float
  %27 = fdiv float %26, 1.200000e+02
  %28 = getelementptr inbounds i8, ptr %1, i64 20
  %.sroa.0.0.copyload.i = load i32, ptr %28, align 4
  %29 = and i32 %.sroa.0.0.copyload.i, 33554432
  %.not.i = icmp eq i32 %29, 0
  %spec.select.i = select i1 %.not.i, i32 8, i32 24
  %30 = lshr i32 %.sroa.0.0.copyload.i, 21
  %.1.i = and i32 %30, 96
  %.2.i = or disjoint i32 %spec.select.i, %.1.i
  tail call void @_ZN3vcg9Trackball10MouseWheelEfi(ptr noundef nonnull align 8 dereferenceable(597) %23, float noundef %27, i32 noundef %.2.i)
  br label %48

31:                                               ; preds = %2
  %32 = getelementptr inbounds i8, ptr %0, i64 1264
  %33 = load ptr, ptr %32, align 8
  %34 = getelementptr inbounds i8, ptr %1, i64 80
  %35 = load i32, ptr %34, align 8
  %36 = sitofp i32 %35 to float
  %37 = fdiv float %36, 1.200000e+02
  %38 = getelementptr inbounds i8, ptr %1, i64 20
  %.sroa.0.0.copyload.i10 = load i32, ptr %38, align 4
  %39 = and i32 %.sroa.0.0.copyload.i10, 33554432
  %.not.i11 = icmp eq i32 %39, 0
  %spec.select.i12 = select i1 %.not.i11, i32 8, i32 24
  %40 = lshr i32 %.sroa.0.0.copyload.i10, 21
  %.1.i13 = and i32 %40, 96
  %.2.i14 = or disjoint i32 %spec.select.i12, %.1.i13
  tail call void @_ZN3vcg9Trackball10MouseWheelEfi(ptr noundef nonnull align 8 dereferenceable(597) %33, float noundef %37, i32 noundef %.2.i14)
  %41 = getelementptr inbounds i8, ptr %0, i64 1272
  %42 = load ptr, ptr %41, align 8
  %43 = load i32, ptr %34, align 8
  %44 = sitofp i32 %43 to float
  %45 = fdiv float %44, 1.200000e+02
  %.sroa.0.0.copyload.i15 = load i32, ptr %38, align 4
  %46 = and i32 %.sroa.0.0.copyload.i15, 33554432
  %.not.i16 = icmp eq i32 %46, 0
  %spec.select.i17 = select i1 %.not.i16, i32 8, i32 24
  %47 = lshr i32 %.sroa.0.0.copyload.i15, 21
  %.1.i18 = and i32 %47, 96
  %.2.i19 = or disjoint i32 %spec.select.i17, %.1.i18
  tail call void @_ZN3vcg9Trackball10MouseWheelEfi(ptr noundef nonnull align 8 dereferenceable(597) %42, float noundef %45, i32 noundef %.2.i19)
  br label %48

48:                                               ; preds = %31, %6
  tail call void @_ZN7QWidget6updateEv(ptr noundef nonnull align 8 dereferenceable(48) %0)
  ret void
}